target datalayout = "e-m:e-p270:32:32-p271:32:32-p272:64:64-i64:64-i128:128-f80:128-n8:16:32:64-S128"
target triple = "x86_64-unknown-linux-gnu"

%struct.QTailQLink = type { ptr, ptr }
%struct.QemuInputHandlerState = type { ptr, ptr, i32, i32, ptr, %union.anon }
%union.anon = type { %struct.QTailQLink }

; Function Attrs: nounwind sspstrong uwtable
define dso_local void @qemu_input_handler_bind(ptr noundef %s, ptr noundef %device_id, i32 noundef %head, ptr noundef %errp) #0 {
entry:
  %s.addr = alloca ptr, align 8
  %device_id.addr = alloca ptr, align 8
  %head.addr = alloca i32, align 4
  %errp.addr = alloca ptr, align 8
  %con = alloca ptr, align 8
  %err = alloca ptr, align 8
  store ptr %s, ptr %s.addr, align 8
  store ptr %device_id, ptr %device_id.addr, align 8
  store i32 %head, ptr %head.addr, align 4
  store ptr %errp, ptr %errp.addr, align 8
  store ptr null, ptr %err, align 8
  %0 = load ptr, ptr %device_id.addr, align 8
  %1 = load i32, ptr %head.addr, align 4
  %call = call ptr @qemu_console_lookup_by_device_name(ptr noundef %0, i32 noundef %1, ptr noundef %err)
  store ptr %call, ptr %con, align 8
  %2 = load ptr, ptr %err, align 8
  %tobool = icmp ne ptr %2, null
  br i1 %tobool, label %if.then, label %if.end

if.then:                                          ; preds = %entry
  %3 = load ptr, ptr %errp.addr, align 8
  %4 = load ptr, ptr %err, align 8
  call void @error_propagate(ptr noundef %3, ptr noundef %4)
  br label %return

if.end:                                           ; preds = %entry
  %5 = load ptr, ptr %con, align 8
  %6 = load ptr, ptr %s.addr, align 8
  %con1 = getelementptr inbounds %struct.QemuInputHandlerState, ptr %6, i32 0, i32 4
  store ptr %5, ptr %con1, align 8
  br label %return

return:                                           ; preds = %if.end, %if.then
  ret void
}