; Function Attrs: nounwind sspstrong uwtable
define dso_local void @qemu_input_handler_bind(ptr noundef writeonly captures(none) %s, ptr noundef %device_id, i32 noundef %head, ptr noundef %errp) local_unnamed_addr #0 {
entry:
  %err = alloca ptr, align 8
  store ptr null, ptr %err, align 8
  %call = call ptr @qemu_console_lookup_by_device_name(ptr noundef %device_id, i32 noundef %head, ptr noundef nonnull %err) #12
  %0 = load ptr, ptr %err, align 8
  %tobool.not = icmp eq ptr %0, null
  br i1 %tobool.not, label %if.end, label %if.then

if.then:                                          ; preds = %entry
  call void @error_propagate(ptr noundef %errp, ptr noundef nonnull %0) #12
  br label %return

if.end:                                           ; preds = %entry
  %con1 = getelementptr inbounds nuw i8, ptr %s, i64 24
  store ptr %call, ptr %con1, align 8
  br label %return

return:                                           ; preds = %if.end, %if.then
  ret void
}